target datalayout = "e-m:e-p270:32:32-p271:32:32-p272:64:64-i64:64-i128:128-f80:128-n8:16:32:64-S128"
target triple = "x86_64-unknown-linux-gnu"

%struct.target_statx = type { i32, i32, i64, i32, i32, i32, i16, [1 x i16], i64, i64, i64, i64, %struct.target_statx_timestamp, %struct.target_statx_timestamp, %struct.target_statx_timestamp, %struct.target_statx_timestamp, i32, i32, i32, i32, [14 x i64] }
%struct.target_statx_timestamp = type { i64, i32, i32 }

; Function Attrs: nounwind sspstrong uwtable
define internal void @stw_he_p(ptr noundef %ptr, i16 noundef zeroext %v) #0 {
entry:
  %ptr.addr = alloca ptr, align 8
  %v.addr = alloca i16, align 2
  store ptr %ptr, ptr %ptr.addr, align 8
  store i16 %v, ptr %v.addr, align 2
  %0 = load ptr, ptr %ptr.addr, align 8
  call void @llvm.memcpy.p0.p0.i64(ptr align 1 %0, ptr align 2 %v.addr, i64 2, i1 false)
  ret void
}

; Function Attrs: nounwind sspstrong uwtable
define internal void @stq_he_p(ptr noundef %ptr, i64 noundef %v) #0 {
entry:
  %ptr.addr = alloca ptr, align 8
  %v.addr = alloca i64, align 8
  store ptr %ptr, ptr %ptr.addr, align 8
  store i64 %v, ptr %v.addr, align 8
  %0 = load ptr, ptr %ptr.addr, align 8
  call void @llvm.memcpy.p0.p0.i64(ptr align 1 %0, ptr align 8 %v.addr, i64 8, i1 false)
  ret void
}

; Function Attrs: nounwind sspstrong uwtable
define internal void @stl_he_p(ptr noundef %ptr, i32 noundef %v) #0 {
entry:
  %ptr.addr = alloca ptr, align 8
  %v.addr = alloca i32, align 4
  store ptr %ptr, ptr %ptr.addr, align 8
  store i32 %v, ptr %v.addr, align 4
  %0 = load ptr, ptr %ptr.addr, align 8
  call void @llvm.memcpy.p0.p0.i64(ptr align 1 %0, ptr align 4 %v.addr, i64 4, i1 false)
  ret void
}

; Function Attrs: nounwind sspstrong uwtable
define internal void @unlock_user(ptr noundef %host_ptr, i64 noundef %guest_addr, i64 noundef %len) #0 {
entry:
  %host_ptr.addr = alloca ptr, align 8
  %guest_addr.addr = alloca i64, align 8
  %len.addr = alloca i64, align 8
  store ptr %host_ptr, ptr %host_ptr.addr, align 8
  store i64 %guest_addr, ptr %guest_addr.addr, align 8
  store i64 %len, ptr %len.addr, align 8
  ret void
}

; Function Attrs: nounwind sspstrong uwtable
define internal void @stw_le_p(ptr noundef %ptr, i16 noundef zeroext %v) #0 {
entry:
  %ptr.addr = alloca ptr, align 8
  %v.addr = alloca i16, align 2
  store ptr %ptr, ptr %ptr.addr, align 8
  store i16 %v, ptr %v.addr, align 2
  %0 = load ptr, ptr %ptr.addr, align 8
  %1 = load i16, ptr %v.addr, align 2
  call void @stw_he_p(ptr noundef %0, i16 noundef zeroext %1)
  ret void
}

; Function Attrs: nounwind sspstrong uwtable
define internal void @stq_le_p(ptr noundef %ptr, i64 noundef %v) #0 {
entry:
  %ptr.addr = alloca ptr, align 8
  %v.addr = alloca i64, align 8
  store ptr %ptr, ptr %ptr.addr, align 8
  store i64 %v, ptr %v.addr, align 8
  %0 = load ptr, ptr %ptr.addr, align 8
  %1 = load i64, ptr %v.addr, align 8
  call void @stq_he_p(ptr noundef %0, i64 noundef %1)
  ret void
}

; Function Attrs: nounwind sspstrong uwtable
define internal void @stl_le_p(ptr noundef %ptr, i32 noundef %v) #0 {
entry:
  %ptr.addr = alloca ptr, align 8
  %v.addr = alloca i32, align 4
  store ptr %ptr, ptr %ptr.addr, align 8
  store i32 %v, ptr %v.addr, align 4
  %0 = load ptr, ptr %ptr.addr, align 8
  %1 = load i32, ptr %v.addr, align 4
  call void @stl_he_p(ptr noundef %0, i32 noundef %1)
  ret void
}

; Function Attrs: nounwind sspstrong uwtable
define internal i64 @host_to_target_statx(ptr noundef %host_stx, i64 noundef %target_addr) #0 {
entry:
  %retval = alloca i64, align 8
  %host_stx.addr = alloca ptr, align 8
  %target_addr.addr = alloca i64, align 8
  %target_stx = alloca ptr, align 8
  store ptr %host_stx, ptr %host_stx.addr, align 8
  store i64 %target_addr, ptr %target_addr.addr, align 8
  %0 = load i64, ptr %target_addr.addr, align 8
  %call = call ptr @lock_user(i32 noundef 3, i64 noundef %0, i64 noundef 256, i1 noundef zeroext false)
  store ptr %call, ptr %target_stx, align 8
  %tobool = icmp ne ptr %call, null
  br i1 %tobool, label %if.end, label %if.then

if.then:                                          ; preds = %entry
  store i64 -14, ptr %retval, align 8
  br label %return

if.end:                                           ; preds = %entry
  %1 = load ptr, ptr %target_stx, align 8
  call void @llvm.memset.p0.i64(ptr align 8 %1, i8 0, i64 256, i1 false)
  br label %do.body

do.body:                                          ; preds = %if.end
  %2 = load ptr, ptr %target_stx, align 8
  %stx_mask = getelementptr inbounds %struct.target_statx, ptr %2, i32 0, i32 0
  %3 = load ptr, ptr %host_stx.addr, align 8
  %stx_mask1 = getelementptr inbounds %struct.target_statx, ptr %3, i32 0, i32 0
  %4 = load i32, ptr %stx_mask1, align 8
  call void @stl_le_p(ptr noundef %stx_mask, i32 noundef %4)
  br label %do.end

do.end:                                           ; preds = %do.body
  br label %do.body2

do.body2:                                         ; preds = %do.end
  %5 = load ptr, ptr %target_stx, align 8
  %stx_blksize = getelementptr inbounds %struct.target_statx, ptr %5, i32 0, i32 1
  %6 = load ptr, ptr %host_stx.addr, align 8
  %stx_blksize3 = getelementptr inbounds %struct.target_statx, ptr %6, i32 0, i32 1
  %7 = load i32, ptr %stx_blksize3, align 4
  call void @stl_le_p(ptr noundef %stx_blksize, i32 noundef %7)
  br label %do.end4

do.end4:                                          ; preds = %do.body2
  br label %do.body5

do.body5:                                         ; preds = %do.end4
  %8 = load ptr, ptr %target_stx, align 8
  %stx_attributes = getelementptr inbounds %struct.target_statx, ptr %8, i32 0, i32 2
  %9 = load ptr, ptr %host_stx.addr, align 8
  %stx_attributes6 = getelementptr inbounds %struct.target_statx, ptr %9, i32 0, i32 2
  %10 = load i64, ptr %stx_attributes6, align 8
  call void @stq_le_p(ptr noundef %stx_attributes, i64 noundef %10)
  br label %do.end7

do.end7:                                          ; preds = %do.body5
  br label %do.body8

do.body8:                                         ; preds = %do.end7
  %11 = load ptr, ptr %target_stx, align 8
  %stx_nlink = getelementptr inbounds %struct.target_statx, ptr %11, i32 0, i32 3
  %12 = load ptr, ptr %host_stx.addr, align 8
  %stx_nlink9 = getelementptr inbounds %struct.target_statx, ptr %12, i32 0, i32 3
  %13 = load i32, ptr %stx_nlink9, align 8
  call void @stl_le_p(ptr noundef %stx_nlink, i32 noundef %13)
  br label %do.end10

do.end10:                                         ; preds = %do.body8
  br label %do.body11

do.body11:                                        ; preds = %do.end10
  %14 = load ptr, ptr %target_stx, align 8
  %stx_uid = getelementptr inbounds %struct.target_statx, ptr %14, i32 0, i32 4
  %15 = load ptr, ptr %host_stx.addr, align 8
  %stx_uid12 = getelementptr inbounds %struct.target_statx, ptr %15, i32 0, i32 4
  %16 = load i32, ptr %stx_uid12, align 4
  call void @stl_le_p(ptr noundef %stx_uid, i32 noundef %16)
  br label %do.end13

do.end13:                                         ; preds = %do.body11
  br label %do.body14

do.body14:                                        ; preds = %do.end13
  %17 = load ptr, ptr %target_stx, align 8
  %stx_gid = getelementptr inbounds %struct.target_statx, ptr %17, i32 0, i32 5
  %18 = load ptr, ptr %host_stx.addr, align 8
  %stx_gid15 = getelementptr inbounds %struct.target_statx, ptr %18, i32 0, i32 5
  %19 = load i32, ptr %stx_gid15, align 8
  call void @stl_le_p(ptr noundef %stx_gid, i32 noundef %19)
  br label %do.end16

do.end16:                                         ; preds = %do.body14
  br label %do.body17

do.body17:                                        ; preds = %do.end16
  %20 = load ptr, ptr %target_stx, align 8
  %stx_mode = getelementptr inbounds %struct.target_statx, ptr %20, i32 0, i32 6
  %21 = load ptr, ptr %host_stx.addr, align 8
  %stx_mode18 = getelementptr inbounds %struct.target_statx, ptr %21, i32 0, i32 6
  %22 = load i16, ptr %stx_mode18, align 4
  call void @stw_le_p(ptr noundef %stx_mode, i16 noundef zeroext %22)
  br label %do.end19

do.end19:                                         ; preds = %do.body17
  br label %do.body20

do.body20:                                        ; preds = %do.end19
  %23 = load ptr, ptr %target_stx, align 8
  %stx_ino = getelementptr inbounds %struct.target_statx, ptr %23, i32 0, i32 8
  %24 = load ptr, ptr %host_stx.addr, align 8
  %stx_ino21 = getelementptr inbounds %struct.target_statx, ptr %24, i32 0, i32 8
  %25 = load i64, ptr %stx_ino21, align 8
  call void @stq_le_p(ptr noundef %stx_ino, i64 noundef %25)
  br label %do.end22

do.end22:                                         ; preds = %do.body20
  br label %do.body23

do.body23:                                        ; preds = %do.end22
  %26 = load ptr, ptr %target_stx, align 8
  %stx_size = getelementptr inbounds %struct.target_statx, ptr %26, i32 0, i32 9
  %27 = load ptr, ptr %host_stx.addr, align 8
  %stx_size24 = getelementptr inbounds %struct.target_statx, ptr %27, i32 0, i32 9
  %28 = load i64, ptr %stx_size24, align 8
  call void @stq_le_p(ptr noundef %stx_size, i64 noundef %28)
  br label %do.end25

do.end25:                                         ; preds = %do.body23
  br label %do.body26

do.body26:                                        ; preds = %do.end25
  %29 = load ptr, ptr %target_stx, align 8
  %stx_blocks = getelementptr inbounds %struct.target_statx, ptr %29, i32 0, i32 10
  %30 = load ptr, ptr %host_stx.addr, align 8
  %stx_blocks27 = getelementptr inbounds %struct.target_statx, ptr %30, i32 0, i32 10
  %31 = load i64, ptr %stx_blocks27, align 8
  call void @stq_le_p(ptr noundef %stx_blocks, i64 noundef %31)
  br label %do.end28

do.end28:                                         ; preds = %do.body26
  br label %do.body29

do.body29:                                        ; preds = %do.end28
  %32 = load ptr, ptr %target_stx, align 8
  %stx_attributes_mask = getelementptr inbounds %struct.target_statx, ptr %32, i32 0, i32 11
  %33 = load ptr, ptr %host_stx.addr, align 8
  %stx_attributes_mask30 = getelementptr inbounds %struct.target_statx, ptr %33, i32 0, i32 11
  %34 = load i64, ptr %stx_attributes_mask30, align 8
  call void @stq_le_p(ptr noundef %stx_attributes_mask, i64 noundef %34)
  br label %do.end31

do.end31:                                         ; preds = %do.body29
  br label %do.body32

do.body32:                                        ; preds = %do.end31
  %35 = load ptr, ptr %target_stx, align 8
  %stx_atime = getelementptr inbounds %struct.target_statx, ptr %35, i32 0, i32 12
  %tv_sec = getelementptr inbounds %struct.target_statx_timestamp, ptr %stx_atime, i32 0, i32 0
  %36 = load ptr, ptr %host_stx.addr, align 8
  %stx_atime33 = getelementptr inbounds %struct.target_statx, ptr %36, i32 0, i32 12
  %tv_sec34 = getelementptr inbounds %struct.target_statx_timestamp, ptr %stx_atime33, i32 0, i32 0
  %37 = load i64, ptr %tv_sec34, align 8
  call void @stq_le_p(ptr noundef %tv_sec, i64 noundef %37)
  br label %do.end35

do.end35:                                         ; preds = %do.body32
  br label %do.body36

do.body36:                                        ; preds = %do.end35
  %38 = load ptr, ptr %target_stx, align 8
  %stx_atime37 = getelementptr inbounds %struct.target_statx, ptr %38, i32 0, i32 12
  %tv_nsec = getelementptr inbounds %struct.target_statx_timestamp, ptr %stx_atime37, i32 0, i32 1
  %39 = load ptr, ptr %host_stx.addr, align 8
  %stx_atime38 = getelementptr inbounds %struct.target_statx, ptr %39, i32 0, i32 12
  %tv_nsec39 = getelementptr inbounds %struct.target_statx_timestamp, ptr %stx_atime38, i32 0, i32 1
  %40 = load i32, ptr %tv_nsec39, align 8
  call void @stl_le_p(ptr noundef %tv_nsec, i32 noundef %40)
  br label %do.end40

do.end40:                                         ; preds = %do.body36
  br label %do.body41

do.body41:                                        ; preds = %do.end40
  %41 = load ptr, ptr %target_stx, align 8
  %stx_btime = getelementptr inbounds %struct.target_statx, ptr %41, i32 0, i32 13
  %tv_sec42 = getelementptr inbounds %struct.target_statx_timestamp, ptr %stx_btime, i32 0, i32 0
  %42 = load ptr, ptr %host_stx.addr, align 8
  %stx_btime43 = getelementptr inbounds %struct.target_statx, ptr %42, i32 0, i32 13
  %tv_sec44 = getelementptr inbounds %struct.target_statx_timestamp, ptr %stx_btime43, i32 0, i32 0
  %43 = load i64, ptr %tv_sec44, align 8
  call void @stq_le_p(ptr noundef %tv_sec42, i64 noundef %43)
  br label %do.end45

do.end45:                                         ; preds = %do.body41
  br label %do.body46

do.body46:                                        ; preds = %do.end45
  %44 = load ptr, ptr %target_stx, align 8
  %stx_btime47 = getelementptr inbounds %struct.target_statx, ptr %44, i32 0, i32 13
  %tv_nsec48 = getelementptr inbounds %struct.target_statx_timestamp, ptr %stx_btime47, i32 0, i32 1
  %45 = load ptr, ptr %host_stx.addr, align 8
  %stx_btime49 = getelementptr inbounds %struct.target_statx, ptr %45, i32 0, i32 13
  %tv_nsec50 = getelementptr inbounds %struct.target_statx_timestamp, ptr %stx_btime49, i32 0, i32 1
  %46 = load i32, ptr %tv_nsec50, align 8
  call void @stl_le_p(ptr noundef %tv_nsec48, i32 noundef %46)
  br label %do.end51

do.end51:                                         ; preds = %do.body46
  br label %do.body52

do.body52:                                        ; preds = %do.end51
  %47 = load ptr, ptr %target_stx, align 8
  %stx_ctime = getelementptr inbounds %struct.target_statx, ptr %47, i32 0, i32 14
  %tv_sec53 = getelementptr inbounds %struct.target_statx_timestamp, ptr %stx_ctime, i32 0, i32 0
  %48 = load ptr, ptr %host_stx.addr, align 8
  %stx_ctime54 = getelementptr inbounds %struct.target_statx, ptr %48, i32 0, i32 14
  %tv_sec55 = getelementptr inbounds %struct.target_statx_timestamp, ptr %stx_ctime54, i32 0, i32 0
  %49 = load i64, ptr %tv_sec55, align 8
  call void @stq_le_p(ptr noundef %tv_sec53, i64 noundef %49)
  br label %do.end56

do.end56:                                         ; preds = %do.body52
  br label %do.body57

do.body57:                                        ; preds = %do.end56
  %50 = load ptr, ptr %target_stx, align 8
  %stx_ctime58 = getelementptr inbounds %struct.target_statx, ptr %50, i32 0, i32 14
  %tv_nsec59 = getelementptr inbounds %struct.target_statx_timestamp, ptr %stx_ctime58, i32 0, i32 1
  %51 = load ptr, ptr %host_stx.addr, align 8
  %stx_ctime60 = getelementptr inbounds %struct.target_statx, ptr %51, i32 0, i32 14
  %tv_nsec61 = getelementptr inbounds %struct.target_statx_timestamp, ptr %stx_ctime60, i32 0, i32 1
  %52 = load i32, ptr %tv_nsec61, align 8
  call void @stl_le_p(ptr noundef %tv_nsec59, i32 noundef %52)
  br label %do.end62

do.end62:                                         ; preds = %do.body57
  br label %do.body63

do.body63:                                        ; preds = %do.end62
  %53 = load ptr, ptr %target_stx, align 8
  %stx_mtime = getelementptr inbounds %struct.target_statx, ptr %53, i32 0, i32 15
  %tv_sec64 = getelementptr inbounds %struct.target_statx_timestamp, ptr %stx_mtime, i32 0, i32 0
  %54 = load ptr, ptr %host_stx.addr, align 8
  %stx_mtime65 = getelementptr inbounds %struct.target_statx, ptr %54, i32 0, i32 15
  %tv_sec66 = getelementptr inbounds %struct.target_statx_timestamp, ptr %stx_mtime65, i32 0, i32 0
  %55 = load i64, ptr %tv_sec66, align 8
  call void @stq_le_p(ptr noundef %tv_sec64, i64 noundef %55)
  br label %do.end67

do.end67:                                         ; preds = %do.body63
  br label %do.body68

do.body68:                                        ; preds = %do.end67
  %56 = load ptr, ptr %target_stx, align 8
  %stx_mtime69 = getelementptr inbounds %struct.target_statx, ptr %56, i32 0, i32 15
  %tv_nsec70 = getelementptr inbounds %struct.target_statx_timestamp, ptr %stx_mtime69, i32 0, i32 1
  %57 = load ptr, ptr %host_stx.addr, align 8
  %stx_mtime71 = getelementptr inbounds %struct.target_statx, ptr %57, i32 0, i32 15
  %tv_nsec72 = getelementptr inbounds %struct.target_statx_timestamp, ptr %stx_mtime71, i32 0, i32 1
  %58 = load i32, ptr %tv_nsec72, align 8
  call void @stl_le_p(ptr noundef %tv_nsec70, i32 noundef %58)
  br label %do.end73

do.end73:                                         ; preds = %do.body68
  br label %do.body74

do.body74:                                        ; preds = %do.end73
  %59 = load ptr, ptr %target_stx, align 8
  %stx_rdev_major = getelementptr inbounds %struct.target_statx, ptr %59, i32 0, i32 16
  %60 = load ptr, ptr %host_stx.addr, align 8
  %stx_rdev_major75 = getelementptr inbounds %struct.target_statx, ptr %60, i32 0, i32 16
  %61 = load i32, ptr %stx_rdev_major75, align 8
  call void @stl_le_p(ptr noundef %stx_rdev_major, i32 noundef %61)
  br label %do.end76

do.end76:                                         ; preds = %do.body74
  br label %do.body77

do.body77:                                        ; preds = %do.end76
  %62 = load ptr, ptr %target_stx, align 8
  %stx_rdev_minor = getelementptr inbounds %struct.target_statx, ptr %62, i32 0, i32 17
  %63 = load ptr, ptr %host_stx.addr, align 8
  %stx_rdev_minor78 = getelementptr inbounds %struct.target_statx, ptr %63, i32 0, i32 17
  %64 = load i32, ptr %stx_rdev_minor78, align 4
  call void @stl_le_p(ptr noundef %stx_rdev_minor, i32 noundef %64)
  br label %do.end79

do.end79:                                         ; preds = %do.body77
  br label %do.body80

do.body80:                                        ; preds = %do.end79
  %65 = load ptr, ptr %target_stx, align 8
  %stx_dev_major = getelementptr inbounds %struct.target_statx, ptr %65, i32 0, i32 18
  %66 = load ptr, ptr %host_stx.addr, align 8
  %stx_dev_major81 = getelementptr inbounds %struct.target_statx, ptr %66, i32 0, i32 18
  %67 = load i32, ptr %stx_dev_major81, align 8
  call void @stl_le_p(ptr noundef %stx_dev_major, i32 noundef %67)
  br label %do.end82

do.end82:                                         ; preds = %do.body80
  br label %do.body83

do.body83:                                        ; preds = %do.end82
  %68 = load ptr, ptr %target_stx, align 8
  %stx_dev_minor = getelementptr inbounds %struct.target_statx, ptr %68, i32 0, i32 19
  %69 = load ptr, ptr %host_stx.addr, align 8
  %stx_dev_minor84 = getelementptr inbounds %struct.target_statx, ptr %69, i32 0, i32 19
  %70 = load i32, ptr %stx_dev_minor84, align 4
  call void @stl_le_p(ptr noundef %stx_dev_minor, i32 noundef %70)
  br label %do.end85

do.end85:                                         ; preds = %do.body83
  %71 = load ptr, ptr %target_stx, align 8
  %72 = load i64, ptr %target_addr.addr, align 8
  call void @unlock_user(ptr noundef %71, i64 noundef %72, i64 noundef 256)
  store i64 0, ptr %retval, align 8
  br label %return

return:                                           ; preds = %do.end85, %if.then
  %73 = load i64, ptr %retval, align 8
  ret i64 %73
}