; Function Attrs: nounwind sspstrong uwtable
define internal fastcc range(i64 -14, 1) i64 @host_to_target_statx(ptr noundef nonnull readonly captures(none) %host_stx, i64 noundef %target_addr) unnamed_addr #2 {
entry:
  %call = tail call ptr @lock_user(i32 noundef 3, i64 noundef %target_addr, i64 noundef 256, i1 noundef zeroext false) #27
  %tobool.not = icmp eq ptr %call, null
  br i1 %tobool.not, label %return, label %if.end

if.end:                                           ; preds = %entry
  tail call void @llvm.memset.p0.i64(ptr noundef nonnull align 8 dereferenceable(256) %call, i8 0, i64 256, i1 false)
  %0 = load i32, ptr %host_stx, align 8
  store i32 %0, ptr %call, align 1
  %stx_blksize = getelementptr inbounds nuw i8, ptr %call, i64 4
  %stx_blksize3 = getelementptr inbounds nuw i8, ptr %host_stx, i64 4
  %1 = load i32, ptr %stx_blksize3, align 4
  store i32 %1, ptr %stx_blksize, align 1
  %stx_attributes = getelementptr inbounds nuw i8, ptr %call, i64 8
  %stx_attributes6 = getelementptr inbounds nuw i8, ptr %host_stx, i64 8
  %2 = load i64, ptr %stx_attributes6, align 8
  store i64 %2, ptr %stx_attributes, align 1
  %stx_nlink = getelementptr inbounds nuw i8, ptr %call, i64 16
  %stx_nlink9 = getelementptr inbounds nuw i8, ptr %host_stx, i64 16
  %3 = load i32, ptr %stx_nlink9, align 8
  store i32 %3, ptr %stx_nlink, align 1
  %stx_uid = getelementptr inbounds nuw i8, ptr %call, i64 20
  %stx_uid12 = getelementptr inbounds nuw i8, ptr %host_stx, i64 20
  %4 = load i32, ptr %stx_uid12, align 4
  store i32 %4, ptr %stx_uid, align 1
  %stx_gid = getelementptr inbounds nuw i8, ptr %call, i64 24
  %stx_gid15 = getelementptr inbounds nuw i8, ptr %host_stx, i64 24
  %5 = load i32, ptr %stx_gid15, align 8
  store i32 %5, ptr %stx_gid, align 1
  %stx_mode = getelementptr inbounds nuw i8, ptr %call, i64 28
  %stx_mode18 = getelementptr inbounds nuw i8, ptr %host_stx, i64 28
  %6 = load i16, ptr %stx_mode18, align 4
  store i16 %6, ptr %stx_mode, align 1
  %stx_ino = getelementptr inbounds nuw i8, ptr %call, i64 32
  %stx_ino21 = getelementptr inbounds nuw i8, ptr %host_stx, i64 32
  %7 = load i64, ptr %stx_ino21, align 8
  store i64 %7, ptr %stx_ino, align 1
  %stx_size = getelementptr inbounds nuw i8, ptr %call, i64 40
  %stx_size24 = getelementptr inbounds nuw i8, ptr %host_stx, i64 40
  %8 = load i64, ptr %stx_size24, align 8
  store i64 %8, ptr %stx_size, align 1
  %stx_blocks = getelementptr inbounds nuw i8, ptr %call, i64 48
  %stx_blocks27 = getelementptr inbounds nuw i8, ptr %host_stx, i64 48
  %9 = load i64, ptr %stx_blocks27, align 8
  store i64 %9, ptr %stx_blocks, align 1
  %stx_attributes_mask = getelementptr inbounds nuw i8, ptr %call, i64 56
  %stx_attributes_mask30 = getelementptr inbounds nuw i8, ptr %host_stx, i64 56
  %10 = load i64, ptr %stx_attributes_mask30, align 8
  store i64 %10, ptr %stx_attributes_mask, align 1
  %stx_atime = getelementptr inbounds nuw i8, ptr %call, i64 64
  %stx_atime33 = getelementptr inbounds nuw i8, ptr %host_stx, i64 64
  %11 = load i64, ptr %stx_atime33, align 8
  store i64 %11, ptr %stx_atime, align 1
  %tv_nsec = getelementptr inbounds nuw i8, ptr %call, i64 72
  %tv_nsec39 = getelementptr inbounds nuw i8, ptr %host_stx, i64 72
  %12 = load i32, ptr %tv_nsec39, align 8
  store i32 %12, ptr %tv_nsec, align 1
  %stx_btime = getelementptr inbounds nuw i8, ptr %call, i64 80
  %stx_btime43 = getelementptr inbounds nuw i8, ptr %host_stx, i64 80
  %13 = load i64, ptr %stx_btime43, align 8
  store i64 %13, ptr %stx_btime, align 1
  %tv_nsec48 = getelementptr inbounds nuw i8, ptr %call, i64 88
  %tv_nsec50 = getelementptr inbounds nuw i8, ptr %host_stx, i64 88
  %14 = load i32, ptr %tv_nsec50, align 8
  store i32 %14, ptr %tv_nsec48, align 1
  %stx_ctime = getelementptr inbounds nuw i8, ptr %call, i64 96
  %stx_ctime54 = getelementptr inbounds nuw i8, ptr %host_stx, i64 96
  %15 = load i64, ptr %stx_ctime54, align 8
  store i64 %15, ptr %stx_ctime, align 1
  %tv_nsec59 = getelementptr inbounds nuw i8, ptr %call, i64 104
  %tv_nsec61 = getelementptr inbounds nuw i8, ptr %host_stx, i64 104
  %16 = load i32, ptr %tv_nsec61, align 8
  store i32 %16, ptr %tv_nsec59, align 1
  %stx_mtime = getelementptr inbounds nuw i8, ptr %call, i64 112
  %stx_mtime65 = getelementptr inbounds nuw i8, ptr %host_stx, i64 112
  %17 = load i64, ptr %stx_mtime65, align 8
  store i64 %17, ptr %stx_mtime, align 1
  %tv_nsec70 = getelementptr inbounds nuw i8, ptr %call, i64 120
  %tv_nsec72 = getelementptr inbounds nuw i8, ptr %host_stx, i64 120
  %18 = load i32, ptr %tv_nsec72, align 8
  store i32 %18, ptr %tv_nsec70, align 1
  %stx_rdev_major = getelementptr inbounds nuw i8, ptr %call, i64 128
  %stx_rdev_major75 = getelementptr inbounds nuw i8, ptr %host_stx, i64 128
  %19 = load i32, ptr %stx_rdev_major75, align 8
  store i32 %19, ptr %stx_rdev_major, align 1
  %stx_rdev_minor = getelementptr inbounds nuw i8, ptr %call, i64 132
  %stx_rdev_minor78 = getelementptr inbounds nuw i8, ptr %host_stx, i64 132
  %20 = load i32, ptr %stx_rdev_minor78, align 4
  store i32 %20, ptr %stx_rdev_minor, align 1
  %stx_dev_major = getelementptr inbounds nuw i8, ptr %call, i64 136
  %stx_dev_major81 = getelementptr inbounds nuw i8, ptr %host_stx, i64 136
  %21 = load i32, ptr %stx_dev_major81, align 8
  store i32 %21, ptr %stx_dev_major, align 1
  %stx_dev_minor = getelementptr inbounds nuw i8, ptr %call, i64 140
  %stx_dev_minor84 = getelementptr inbounds nuw i8, ptr %host_stx, i64 140
  %22 = load i32, ptr %stx_dev_minor84, align 4
  store i32 %22, ptr %stx_dev_minor, align 1
  br label %return

return:                                           ; preds = %entry, %if.end
  %retval.0 = phi i64 [ 0, %if.end ], [ -14, %entry ]
  ret i64 %retval.0
}